; Function Attrs: inlinehint mustprogress ssp uwtable
define internal fastcc void @"_ZZZN6open3d1t8geometry6kernel12trianglemesh23ComputeVertexNormalsCPUERKNS_4core6TensorES7_RS5_ENK3$_0clEvENKUlvE7_clEv"(ptr noundef nonnull readonly align 8 captures(none) dereferenceable(32) %0) unnamed_addr #15 align 2 {
  %2 = load ptr, ptr %0, align 8, !tbaa !710
  %3 = tail call noundef ptr @_ZNK6open3d4core6Tensor10GetDataPtrIlEEPKT_v(ptr noundef nonnull align 8 dereferenceable(160) %2)
  %4 = getelementptr inbounds nuw i8, ptr %0, i64 8
  %5 = load ptr, ptr %4, align 8, !tbaa !712
  %6 = tail call noundef ptr @_ZNK6open3d4core6Tensor10GetDataPtrIjEEPKT_v(ptr noundef nonnull align 8 dereferenceable(160) %5)
  %7 = getelementptr inbounds nuw i8, ptr %0, i64 16
  %8 = load ptr, ptr %7, align 8, !tbaa !713
  %9 = tail call noundef ptr @_ZNK6open3d4core6Tensor10GetDataPtrIjEEPKT_v(ptr noundef nonnull align 8 dereferenceable(160) %8)
  %10 = getelementptr inbounds nuw i8, ptr %0, i64 24
  %11 = load ptr, ptr %10, align 8, !tbaa !714
  %12 = load i64, ptr %11, align 8, !tbaa !41
  %13 = icmp sgt i64 %12, 0
  br i1 %13, label %.lr.ph, label %._crit_edge

._crit_edge:                                      ; preds = %.lr.ph, %1
  ret void

.lr.ph:                                           ; preds = %1, %.lr.ph
  %.044 = phi i64 [ %56, %.lr.ph ], [ 0, %1 ]
  %14 = mul nuw nsw i64 %.044, 3
  %15 = getelementptr inbounds nuw i64, ptr %3, i64 %14
  %16 = load i64, ptr %15, align 8, !tbaa !41
  %17 = add nuw nsw i64 %14, 1
  %18 = getelementptr inbounds nuw i64, ptr %3, i64 %17
  %19 = load i64, ptr %18, align 8, !tbaa !41
  %20 = add nuw nsw i64 %14, 2
  %21 = getelementptr inbounds nuw i64, ptr %3, i64 %20
  %22 = load i64, ptr %21, align 8, !tbaa !41
  %23 = getelementptr inbounds nuw i32, ptr %6, i64 %14
  %24 = load i32, ptr %23, align 4, !tbaa !28
  %25 = getelementptr inbounds nuw i32, ptr %6, i64 %17
  %26 = load i32, ptr %25, align 4, !tbaa !28
  %27 = getelementptr inbounds nuw i32, ptr %6, i64 %20
  %28 = load i32, ptr %27, align 4, !tbaa !28
  %.idx = mul nsw i64 %16, 12
  %29 = getelementptr inbounds i8, ptr %9, i64 %.idx
  %30 = load i32, ptr %29, align 4, !tbaa !28
  %31 = add i32 %30, %24
  store i32 %31, ptr %29, align 4, !tbaa !28
  %32 = getelementptr i8, ptr %29, i64 4
  %33 = load i32, ptr %32, align 4, !tbaa !28
  %34 = add i32 %33, %26
  store i32 %34, ptr %32, align 4, !tbaa !28
  %35 = getelementptr i8, ptr %29, i64 8
  %36 = load i32, ptr %35, align 4, !tbaa !28
  %37 = add i32 %36, %28
  store i32 %37, ptr %35, align 4, !tbaa !28
  %.idx42 = mul nsw i64 %19, 12
  %38 = getelementptr inbounds i8, ptr %9, i64 %.idx42
  %39 = load i32, ptr %38, align 4, !tbaa !28
  %40 = add i32 %39, %24
  store i32 %40, ptr %38, align 4, !tbaa !28
  %41 = getelementptr i8, ptr %38, i64 4
  %42 = load i32, ptr %41, align 4, !tbaa !28
  %43 = add i32 %42, %26
  store i32 %43, ptr %41, align 4, !tbaa !28
  %44 = getelementptr i8, ptr %38, i64 8
  %45 = load i32, ptr %44, align 4, !tbaa !28
  %46 = add i32 %45, %28
  store i32 %46, ptr %44, align 4, !tbaa !28
  %.idx43 = mul nsw i64 %22, 12
  %47 = getelementptr inbounds i8, ptr %9, i64 %.idx43
  %48 = load i32, ptr %47, align 4, !tbaa !28
  %49 = add i32 %48, %24
  store i32 %49, ptr %47, align 4, !tbaa !28
  %50 = getelementptr i8, ptr %47, i64 4
  %51 = load i32, ptr %50, align 4, !tbaa !28
  %52 = add i32 %51, %26
  store i32 %52, ptr %50, align 4, !tbaa !28
  %53 = getelementptr i8, ptr %47, i64 8
  %54 = load i32, ptr %53, align 4, !tbaa !28
  %55 = add i32 %54, %28
  store i32 %55, ptr %53, align 4, !tbaa !28
  %56 = add nuw nsw i64 %.044, 1
  %exitcond.not = icmp eq i64 %56, %12
  br i1 %exitcond.not, label %._crit_edge, label %.lr.ph, !llvm.loop !715
}